target datalayout = "e-m:e-p270:32:32-p271:32:32-p272:64:64-i64:64-i128:128-f80:128-n8:16:32:64-S128"
target triple = "x86_64-pc-linux-gnu"

@fForceZero = internal global i32 0, align 4

; Function Attrs: nounwind uwtable
define internal i32 @Abc_LitNot(i32 noundef %0) #0 {
  %2 = alloca i32, align 4
  store i32 %0, ptr %2, align 4
  %3 = load i32, ptr %2, align 4
  %4 = xor i32 %3, 1
  ret i32 %4
}

; Function Attrs: nounwind uwtable
define void @Gia_ManDualNot(ptr noundef %0, ptr noundef %1, ptr noundef %2) #0 {
  %4 = alloca ptr, align 8
  %5 = alloca ptr, align 8
  %6 = alloca ptr, align 8
  store ptr %0, ptr %4, align 8
  store ptr %1, ptr %5, align 8
  store ptr %2, ptr %6, align 8
  %7 = load ptr, ptr %5, align 8
  %8 = getelementptr inbounds i32, ptr %7, i64 0
  %9 = load i32, ptr %8, align 4
  %10 = call i32 @Abc_LitNot(i32 noundef %9)
  %11 = load ptr, ptr %6, align 8
  %12 = getelementptr inbounds i32, ptr %11, i64 0
  store i32 %10, ptr %12, align 4
  %13 = load ptr, ptr %5, align 8
  %14 = getelementptr inbounds i32, ptr %13, i64 1
  %15 = load i32, ptr %14, align 4
  %16 = load ptr, ptr %6, align 8
  %17 = getelementptr inbounds i32, ptr %16, i64 1
  store i32 %15, ptr %17, align 4
  %18 = load i32, ptr @fForceZero, align 4
  %19 = icmp ne i32 %18, 0
  br i1 %19, label %20, label %32

20:                                               ; preds = %3
  %21 = load ptr, ptr %4, align 8
  %22 = load ptr, ptr %6, align 8
  %23 = getelementptr inbounds i32, ptr %22, i64 0
  %24 = load i32, ptr %23, align 4
  %25 = load ptr, ptr %6, align 8
  %26 = getelementptr inbounds i32, ptr %25, i64 1
  %27 = load i32, ptr %26, align 4
  %28 = call i32 @Abc_LitNot(i32 noundef %27)
  %29 = call i32 @Gia_ManHashAnd(ptr noundef %21, i32 noundef %24, i32 noundef %28)
  %30 = load ptr, ptr %6, align 8
  %31 = getelementptr inbounds i32, ptr %30, i64 0
  store i32 %29, ptr %31, align 4
  br label %32

32:                                               ; preds = %20, %3
  ret void
}